target datalayout = "e-m:e-p270:32:32-p271:32:32-p272:64:64-i64:64-i128:128-f80:128-n8:16:32:64-S128"
target triple = "x86_64-pc-linux-gnu"

%struct.rev_info = type { ptr, %struct.object_array, ptr, %struct.object_array, %struct.rev_cmdline_info, %struct.list_objects_filter_options, %struct.ref_exclusions, ptr, ptr, ptr, %struct.pathspec, i32, i32, i32, i32, i64, i32, i32, %struct.date_mode, i32, i32, i32, i32, ptr, i32, i32, ptr, ptr, i32, ptr, ptr, %struct.ident_split, ptr, i32, ptr, ptr, ptr, i32, i32, i32, ptr, %struct.grep_opt, ptr, i32, i32, i64, i64, i64, i32, i32, ptr, ptr, ptr, %struct.diff_options, %struct.diff_options, ptr, %struct.decoration, %struct.decoration, %struct.decoration, %struct.display_notes_opt, ptr, ptr, ptr, ptr, ptr, i32, ptr, i32, i32, i32, %struct.decoration, ptr, ptr, ptr, ptr, ptr, ptr, ptr, i32, ptr, i32, ptr, %struct.oidset }
%struct.object_array = type { i32, i32, ptr }
%struct.rev_cmdline_info = type { i32, i32, ptr }
%struct.list_objects_filter_options = type { %struct.strbuf, i32, i8, ptr, i64, i64, i32, i64, i64, ptr }
%struct.strbuf = type { i64, i64, ptr }
%struct.ref_exclusions = type { %struct.string_list, %struct.strvec, i8 }
%struct.string_list = type { ptr, i64, i64, i8, ptr }
%struct.strvec = type { ptr, i64, i64 }
%struct.pathspec = type { i32, i8, i32, i32, ptr }
%struct.date_mode = type { i32, i32, ptr }
%struct.ident_split = type { ptr, ptr, ptr, ptr, ptr, ptr, ptr, ptr }
%struct.grep_opt = type { ptr, ptr, ptr, ptr, ptr, ptr, i32, i32, i32, i32, i32, i32, i32, i32, i32, i32, i32, i32, i32, i32, i32, i32, i32, i32, i32, i32, i32, i32, i32, i32, i32, i32, [9 x [75 x i8]], i32, i32, i32, i32, i32, i32, i32, ptr, ptr, ptr }
%struct.diff_options = type { ptr, ptr, i32, i32, ptr, i32, ptr, i64, i64, ptr, ptr, ptr, ptr, %struct.diff_flags, i32, i32, i32, i32, i32, i32, i32, i32, i32, i32, i32, i32, i32, i32, i32, i32, i32, i32, i32, i32, i32, i32, ptr, i32, ptr, i32, i32, ptr, i64, i64, i32, i32, i32, i32, ptr, i32, i32, ptr, i32, i32, ptr, ptr, i32, [3 x i8], %struct.pathspec, ptr, ptr, ptr, ptr, ptr, ptr, ptr, ptr, i32, ptr, i32, i32, ptr, ptr, i32 }
%struct.diff_flags = type { i32, i32, i32, i32, i32, i32, i32, i32, i32, i32, i32, i32, i32, i32, i32, i32, i32, i32, i32, i32, i32, i32, i32, i32, i32, i32, i32, i32, i32, i32, i32, i32, i32, i32, i32 }
%struct.display_notes_opt = type { i32, %struct.string_list }
%struct.decoration = type { ptr, i32, i32, ptr }
%struct.oidset = type { %struct.kh_oid_set }
%struct.kh_oid_set = type { i32, i32, i32, i32, ptr, ptr, ptr }

@set_to_default = internal global ptr @set_separate, align 8
@suppress_m_parsing = internal global i32 0, align 4
@.str = private unnamed_addr constant [3 x i8] c"-m\00", align 1
@.str.1 = private unnamed_addr constant [3 x i8] c"-c\00", align 1
@.str.2 = private unnamed_addr constant [5 x i8] c"--cc\00", align 1
@.str.3 = private unnamed_addr constant [5 x i8] c"--dd\00", align 1
@.str.4 = private unnamed_addr constant [15 x i8] c"--remerge-diff\00", align 1
@.str.5 = private unnamed_addr constant [17 x i8] c"--no-diff-merges\00", align 1
@.str.6 = private unnamed_addr constant [21 x i8] c"--combined-all-paths\00", align 1
@.str.7 = private unnamed_addr constant [12 x i8] c"diff-merges\00", align 1
@.str.22 = private unnamed_addr constant [29 x i8] c"invalid value for '%s': '%s'\00", align 1
@.str.23 = private unnamed_addr constant [14 x i8] c"--diff-merges\00", align 1

; Function Attrs: nounwind uwtable
define internal void @suppress(ptr noundef %0) #0 {
  %2 = alloca ptr, align 8
  store ptr %0, ptr %2, align 8, !tbaa !12
  %3 = load ptr, ptr %2, align 8, !tbaa !12
  %4 = getelementptr inbounds nuw %struct.rev_info, ptr %3, i32 0, i32 15
  %5 = load i64, ptr %4, align 8
  %6 = and i64 %5, -18014398509481985
  %7 = or i64 %6, 0
  store i64 %7, ptr %4, align 8
  %8 = load ptr, ptr %2, align 8, !tbaa !12
  %9 = getelementptr inbounds nuw %struct.rev_info, ptr %8, i32 0, i32 15
  %10 = load i64, ptr %9, align 8
  %11 = and i64 %10, -288230376151711745
  %12 = or i64 %11, 0
  store i64 %12, ptr %9, align 8
  %13 = load ptr, ptr %2, align 8, !tbaa !12
  %14 = getelementptr inbounds nuw %struct.rev_info, ptr %13, i32 0, i32 15
  %15 = load i64, ptr %14, align 8
  %16 = and i64 %15, -36028797018963969
  %17 = or i64 %16, 0
  store i64 %17, ptr %14, align 8
  %18 = load ptr, ptr %2, align 8, !tbaa !12
  %19 = getelementptr inbounds nuw %struct.rev_info, ptr %18, i32 0, i32 15
  %20 = load i64, ptr %19, align 8
  %21 = and i64 %20, -144115188075855873
  %22 = or i64 %21, 0
  store i64 %22, ptr %19, align 8
  %23 = load ptr, ptr %2, align 8, !tbaa !12
  %24 = getelementptr inbounds nuw %struct.rev_info, ptr %23, i32 0, i32 15
  %25 = load i64, ptr %24, align 8
  %26 = and i64 %25, -72057594037927937
  %27 = or i64 %26, 0
  store i64 %27, ptr %24, align 8
  %28 = load ptr, ptr %2, align 8, !tbaa !12
  %29 = getelementptr inbounds nuw %struct.rev_info, ptr %28, i32 0, i32 15
  %30 = load i64, ptr %29, align 8
  %31 = and i64 %30, -9007199254740993
  %32 = or i64 %31, 0
  store i64 %32, ptr %29, align 8
  %33 = load ptr, ptr %2, align 8, !tbaa !12
  %34 = getelementptr inbounds nuw %struct.rev_info, ptr %33, i32 0, i32 15
  %35 = load i64, ptr %34, align 8
  %36 = and i64 %35, -4503599627370497
  %37 = or i64 %36, 0
  store i64 %37, ptr %34, align 8
  %38 = load ptr, ptr %2, align 8, !tbaa !12
  %39 = getelementptr inbounds nuw %struct.rev_info, ptr %38, i32 0, i32 15
  %40 = load i64, ptr %39, align 8
  %41 = and i64 %40, -576460752303423489
  %42 = or i64 %41, 0
  store i64 %42, ptr %39, align 8
  ret void
}

; Function Attrs: nounwind uwtable
define internal void @set_separate(ptr noundef %0) #0 {
  %2 = alloca ptr, align 8
  store ptr %0, ptr %2, align 8, !tbaa !12
  %3 = load ptr, ptr %2, align 8, !tbaa !12
  call void @common_setup(ptr noundef %3)
  %4 = load ptr, ptr %2, align 8, !tbaa !12
  %5 = getelementptr inbounds nuw %struct.rev_info, ptr %4, i32 0, i32 15
  %6 = load i64, ptr %5, align 8
  %7 = and i64 %6, -18014398509481985
  %8 = or i64 %7, 18014398509481984
  store i64 %8, ptr %5, align 8
  %9 = load ptr, ptr %2, align 8, !tbaa !12
  %10 = getelementptr inbounds nuw %struct.rev_info, ptr %9, i32 0, i32 15
  %11 = load i64, ptr %10, align 8
  %12 = and i64 %11, -129
  %13 = or i64 %12, 0
  store i64 %13, ptr %10, align 8
  ret void
}

; Function Attrs: nounwind uwtable
define internal void @common_setup(ptr noundef %0) #0 {
  %2 = alloca ptr, align 8
  store ptr %0, ptr %2, align 8, !tbaa !12
  %3 = load ptr, ptr %2, align 8, !tbaa !12
  call void @suppress(ptr noundef %3)
  %4 = load ptr, ptr %2, align 8, !tbaa !12
  %5 = getelementptr inbounds nuw %struct.rev_info, ptr %4, i32 0, i32 15
  %6 = load i64, ptr %5, align 8
  %7 = and i64 %6, -4503599627370497
  %8 = or i64 %7, 4503599627370496
  store i64 %8, ptr %5, align 8
  ret void
}

; Function Attrs: nounwind uwtable
define internal void @set_diff_merges(ptr noundef %0, ptr noundef %1) #0 {
  %3 = alloca ptr, align 8
  %4 = alloca ptr, align 8
  %5 = alloca ptr, align 8
  store ptr %0, ptr %3, align 8, !tbaa !12
  store ptr %1, ptr %4, align 8, !tbaa !4
  call void @llvm.lifetime.start.p0(i64 8, ptr %5) #7
  %6 = load ptr, ptr %4, align 8, !tbaa !4
  %7 = call ptr @func_by_opt(ptr noundef %6)
  store ptr %7, ptr %5, align 8, !tbaa !9
  %8 = load ptr, ptr %5, align 8, !tbaa !9
  %9 = icmp ne ptr %8, null
  br i1 %9, label %13, label %10

10:                                               ; preds = %2
  %11 = call ptr @_(ptr noundef @.str.22)
  %12 = load ptr, ptr %4, align 8, !tbaa !4
  call void (ptr, ...) @die(ptr noundef %11, ptr noundef @.str.23, ptr noundef %12) #9
  unreachable

13:                                               ; preds = %2
  %14 = load ptr, ptr %5, align 8, !tbaa !9
  %15 = load ptr, ptr %3, align 8, !tbaa !12
  call void %14(ptr noundef %15)
  call void @llvm.lifetime.end.p0(i64 8, ptr %5) #7
  ret void
}

; Function Attrs: nounwind uwtable
define internal void @set_none(ptr noundef %0) #0 {
  %2 = alloca ptr, align 8
  store ptr %0, ptr %2, align 8, !tbaa !12
  %3 = load ptr, ptr %2, align 8, !tbaa !12
  call void @suppress(ptr noundef %3)
  ret void
}

; Function Attrs: nounwind uwtable
define internal void @set_remerge_diff(ptr noundef %0) #0 {
  %2 = alloca ptr, align 8
  store ptr %0, ptr %2, align 8, !tbaa !12
  %3 = load ptr, ptr %2, align 8, !tbaa !12
  call void @common_setup(ptr noundef %3)
  %4 = load ptr, ptr %2, align 8, !tbaa !12
  %5 = getelementptr inbounds nuw %struct.rev_info, ptr %4, i32 0, i32 15
  %6 = load i64, ptr %5, align 8
  %7 = and i64 %6, -576460752303423489
  %8 = or i64 %7, 576460752303423488
  store i64 %8, ptr %5, align 8
  %9 = load ptr, ptr %2, align 8, !tbaa !12
  %10 = getelementptr inbounds nuw %struct.rev_info, ptr %9, i32 0, i32 15
  %11 = load i64, ptr %10, align 8
  %12 = and i64 %11, -129
  %13 = or i64 %12, 0
  store i64 %13, ptr %10, align 8
  ret void
}

; Function Attrs: nounwind uwtable
define internal void @set_first_parent(ptr noundef %0) #0 {
  %2 = alloca ptr, align 8
  store ptr %0, ptr %2, align 8, !tbaa !12
  %3 = load ptr, ptr %2, align 8, !tbaa !12
  call void @set_separate(ptr noundef %3)
  %4 = load ptr, ptr %2, align 8, !tbaa !12
  %5 = getelementptr inbounds nuw %struct.rev_info, ptr %4, i32 0, i32 15
  %6 = load i64, ptr %5, align 8
  %7 = and i64 %6, -288230376151711745
  %8 = or i64 %7, 288230376151711744
  store i64 %8, ptr %5, align 8
  ret void
}

; Function Attrs: nounwind uwtable
define internal void @set_dense_combined(ptr noundef %0) #0 {
  %2 = alloca ptr, align 8
  store ptr %0, ptr %2, align 8, !tbaa !12
  %3 = load ptr, ptr %2, align 8, !tbaa !12
  call void @common_setup(ptr noundef %3)
  %4 = load ptr, ptr %2, align 8, !tbaa !12
  %5 = getelementptr inbounds nuw %struct.rev_info, ptr %4, i32 0, i32 15
  %6 = load i64, ptr %5, align 8
  %7 = and i64 %6, -36028797018963969
  %8 = or i64 %7, 36028797018963968
  store i64 %8, ptr %5, align 8
  %9 = load ptr, ptr %2, align 8, !tbaa !12
  %10 = getelementptr inbounds nuw %struct.rev_info, ptr %9, i32 0, i32 15
  %11 = load i64, ptr %10, align 8
  %12 = and i64 %11, -144115188075855873
  %13 = or i64 %12, 144115188075855872
  store i64 %13, ptr %10, align 8
  ret void
}

; Function Attrs: nounwind uwtable
define internal void @set_combined(ptr noundef %0) #0 {
  %2 = alloca ptr, align 8
  store ptr %0, ptr %2, align 8, !tbaa !12
  %3 = load ptr, ptr %2, align 8, !tbaa !12
  call void @common_setup(ptr noundef %3)
  %4 = load ptr, ptr %2, align 8, !tbaa !12
  %5 = getelementptr inbounds nuw %struct.rev_info, ptr %4, i32 0, i32 15
  %6 = load i64, ptr %5, align 8
  %7 = and i64 %6, -36028797018963969
  %8 = or i64 %7, 36028797018963968
  store i64 %8, ptr %5, align 8
  %9 = load ptr, ptr %2, align 8, !tbaa !12
  %10 = getelementptr inbounds nuw %struct.rev_info, ptr %9, i32 0, i32 15
  %11 = load i64, ptr %10, align 8
  %12 = and i64 %11, -144115188075855873
  %13 = or i64 %12, 0
  store i64 %13, ptr %10, align 8
  ret void
}

; Function Attrs: nounwind uwtable
define dso_local i32 @diff_merges_parse_opts(ptr noundef %0, ptr noundef %1) #0 {
  %3 = alloca i32, align 4
  %4 = alloca ptr, align 8
  %5 = alloca ptr, align 8
  %6 = alloca i32, align 4
  %7 = alloca ptr, align 8
  %8 = alloca ptr, align 8
  %9 = alloca i32, align 4
  store ptr %0, ptr %4, align 8, !tbaa !12
  store ptr %1, ptr %5, align 8, !tbaa !14
  call void @llvm.lifetime.start.p0(i64 4, ptr %6) #7
  store i32 1, ptr %6, align 4, !tbaa !10
  call void @llvm.lifetime.start.p0(i64 8, ptr %7) #7
  call void @llvm.lifetime.start.p0(i64 8, ptr %8) #7
  %10 = load ptr, ptr %5, align 8, !tbaa !14
  %11 = getelementptr inbounds ptr, ptr %10, i64 0
  %12 = load ptr, ptr %11, align 8, !tbaa !4
  store ptr %12, ptr %8, align 8, !tbaa !4
  %13 = load i32, ptr @suppress_m_parsing, align 4, !tbaa !10
  %14 = icmp ne i32 %13, 0
  br i1 %14, label %27, label %15

15:                                               ; preds = %2
  %16 = load ptr, ptr %8, align 8, !tbaa !4
  %17 = call i32 @strcmp(ptr noundef %16, ptr noundef @.str) #8
  %18 = icmp ne i32 %17, 0
  br i1 %18, label %27, label %19

19:                                               ; preds = %15
  %20 = load ptr, ptr @set_to_default, align 8, !tbaa !9
  %21 = load ptr, ptr %4, align 8, !tbaa !12
  call void %20(ptr noundef %21)
  %22 = load ptr, ptr %4, align 8, !tbaa !12
  %23 = getelementptr inbounds nuw %struct.rev_info, ptr %22, i32 0, i32 15
  %24 = load i64, ptr %23, align 8
  %25 = and i64 %24, -4503599627370497
  %26 = or i64 %25, 0
  store i64 %26, ptr %23, align 8
  br label %102

27:                                               ; preds = %15, %2
  %28 = load ptr, ptr %8, align 8, !tbaa !4
  %29 = call i32 @strcmp(ptr noundef %28, ptr noundef @.str.1) #8
  %30 = icmp ne i32 %29, 0
  br i1 %30, label %38, label %31

31:                                               ; preds = %27
  %32 = load ptr, ptr %4, align 8, !tbaa !12
  call void @set_combined(ptr noundef %32)
  %33 = load ptr, ptr %4, align 8, !tbaa !12
  %34 = getelementptr inbounds nuw %struct.rev_info, ptr %33, i32 0, i32 15
  %35 = load i64, ptr %34, align 8
  %36 = and i64 %35, -9007199254740993
  %37 = or i64 %36, 9007199254740992
  store i64 %37, ptr %34, align 8
  br label %101

38:                                               ; preds = %27
  %39 = load ptr, ptr %8, align 8, !tbaa !4
  %40 = call i32 @strcmp(ptr noundef %39, ptr noundef @.str.2) #8
  %41 = icmp ne i32 %40, 0
  br i1 %41, label %49, label %42

42:                                               ; preds = %38
  %43 = load ptr, ptr %4, align 8, !tbaa !12
  call void @set_dense_combined(ptr noundef %43)
  %44 = load ptr, ptr %4, align 8, !tbaa !12
  %45 = getelementptr inbounds nuw %struct.rev_info, ptr %44, i32 0, i32 15
  %46 = load i64, ptr %45, align 8
  %47 = and i64 %46, -9007199254740993
  %48 = or i64 %47, 9007199254740992
  store i64 %48, ptr %45, align 8
  br label %100

49:                                               ; preds = %38
  %50 = load ptr, ptr %8, align 8, !tbaa !4
  %51 = call i32 @strcmp(ptr noundef %50, ptr noundef @.str.3) #8
  %52 = icmp ne i32 %51, 0
  br i1 %52, label %60, label %53

53:                                               ; preds = %49
  %54 = load ptr, ptr %4, align 8, !tbaa !12
  call void @set_first_parent(ptr noundef %54)
  %55 = load ptr, ptr %4, align 8, !tbaa !12
  %56 = getelementptr inbounds nuw %struct.rev_info, ptr %55, i32 0, i32 15
  %57 = load i64, ptr %56, align 8
  %58 = and i64 %57, -9007199254740993
  %59 = or i64 %58, 9007199254740992
  store i64 %59, ptr %56, align 8
  br label %99

60:                                               ; preds = %49
  %61 = load ptr, ptr %8, align 8, !tbaa !4
  %62 = call i32 @strcmp(ptr noundef %61, ptr noundef @.str.4) #8
  %63 = icmp ne i32 %62, 0
  br i1 %63, label %71, label %64

64:                                               ; preds = %60
  %65 = load ptr, ptr %4, align 8, !tbaa !12
  call void @set_remerge_diff(ptr noundef %65)
  %66 = load ptr, ptr %4, align 8, !tbaa !12
  %67 = getelementptr inbounds nuw %struct.rev_info, ptr %66, i32 0, i32 15
  %68 = load i64, ptr %67, align 8
  %69 = and i64 %68, -9007199254740993
  %70 = or i64 %69, 9007199254740992
  store i64 %70, ptr %67, align 8
  br label %98

71:                                               ; preds = %60
  %72 = load ptr, ptr %8, align 8, !tbaa !4
  %73 = call i32 @strcmp(ptr noundef %72, ptr noundef @.str.5) #8
  %74 = icmp ne i32 %73, 0
  br i1 %74, label %77, label %75

75:                                               ; preds = %71
  %76 = load ptr, ptr %4, align 8, !tbaa !12
  call void @set_none(ptr noundef %76)
  br label %97

77:                                               ; preds = %71
  %78 = load ptr, ptr %8, align 8, !tbaa !4
  %79 = call i32 @strcmp(ptr noundef %78, ptr noundef @.str.6) #8
  %80 = icmp ne i32 %79, 0
  br i1 %80, label %87, label %81

81:                                               ; preds = %77
  %82 = load ptr, ptr %4, align 8, !tbaa !12
  %83 = getelementptr inbounds nuw %struct.rev_info, ptr %82, i32 0, i32 15
  %84 = load i64, ptr %83, align 8
  %85 = and i64 %84, -72057594037927937
  %86 = or i64 %85, 72057594037927936
  store i64 %86, ptr %83, align 8
  br label %96

87:                                               ; preds = %77
  %88 = load ptr, ptr %5, align 8, !tbaa !14
  %89 = call i32 @parse_long_opt(ptr noundef @.str.7, ptr noundef %88, ptr noundef %7)
  store i32 %89, ptr %6, align 4, !tbaa !10
  %90 = icmp ne i32 %89, 0
  br i1 %90, label %91, label %94

91:                                               ; preds = %87
  %92 = load ptr, ptr %4, align 8, !tbaa !12
  %93 = load ptr, ptr %7, align 8, !tbaa !4
  call void @set_diff_merges(ptr noundef %92, ptr noundef %93)
  br label %95

94:                                               ; preds = %87
  store i32 0, ptr %3, align 4
  store i32 1, ptr %9, align 4
  br label %109

95:                                               ; preds = %91
  br label %96

96:                                               ; preds = %95, %81
  br label %97

97:                                               ; preds = %96, %75
  br label %98

98:                                               ; preds = %97, %64
  br label %99

99:                                               ; preds = %98, %53
  br label %100

100:                                              ; preds = %99, %42
  br label %101

101:                                              ; preds = %100, %31
  br label %102

102:                                              ; preds = %101, %19
  %103 = load ptr, ptr %4, align 8, !tbaa !12
  %104 = getelementptr inbounds nuw %struct.rev_info, ptr %103, i32 0, i32 15
  %105 = load i64, ptr %104, align 8
  %106 = and i64 %105, -2251799813685249
  %107 = or i64 %106, 2251799813685248
  store i64 %107, ptr %104, align 8
  %108 = load i32, ptr %6, align 4, !tbaa !10
  store i32 %108, ptr %3, align 4
  store i32 1, ptr %9, align 4
  br label %109

109:                                              ; preds = %102, %94
  call void @llvm.lifetime.end.p0(i64 8, ptr %8) #7
  call void @llvm.lifetime.end.p0(i64 8, ptr %7) #7
  call void @llvm.lifetime.end.p0(i64 4, ptr %6) #7
  %110 = load i32, ptr %3, align 4
  ret i32 %110
}