; Function Attrs: nounwind uwtable
define dso_local i32 @diff_merges_parse_opts(ptr noundef %0, ptr noundef %1) local_unnamed_addr #4 {
  %3 = alloca ptr, align 8
  call void @llvm.lifetime.start.p0(i64 8, ptr nonnull %3) #12
  %4 = load ptr, ptr %1, align 8, !tbaa !8
  %.b = load i1, ptr @suppress_m_parsing, align 4
  %.pre = load i8, ptr %4, align 1
  %.not40 = icmp eq i8 %.pre, 45
  br i1 %.b, label %sub_034, label %sub_0

sub_0:                                            ; preds = %2
  br i1 %.not40, label %sub_1, label %.tail33.thread

sub_1:                                            ; preds = %sub_0
  %5 = getelementptr inbounds nuw i8, ptr %4, i64 1
  %6 = load i8, ptr %5, align 1
  %.not39 = icmp eq i8 %6, 109
  br i1 %.not39, label %.tail, label %sub_135

.tail:                                            ; preds = %sub_1
  %7 = getelementptr inbounds nuw i8, ptr %4, i64 2
  %8 = load i8, ptr %7, align 1
  %9 = icmp eq i8 %8, 0
  br i1 %9, label %10, label %sub_135

10:                                               ; preds = %.tail
  %11 = load ptr, ptr @set_to_default, align 8, !tbaa !4
  tail call void %11(ptr noundef %0) #12
  %12 = getelementptr inbounds nuw i8, ptr %0, i64 288
  %13 = load i64, ptr %12, align 8
  %14 = and i64 %13, -4503599627370497
  br label %64

sub_034:                                          ; preds = %2
  br i1 %.not40, label %sub_135, label %.tail33.thread

sub_135:                                          ; preds = %sub_1, %.tail, %sub_034
  %15 = getelementptr inbounds nuw i8, ptr %4, i64 1
  %16 = load i8, ptr %15, align 1
  %.not41 = icmp eq i8 %16, 99
  br i1 %.not41, label %.tail33, label %.tail33.thread

.tail33:                                          ; preds = %sub_135
  %17 = getelementptr inbounds nuw i8, ptr %4, i64 2
  %18 = load i8, ptr %17, align 1
  %19 = icmp eq i8 %18, 0
  br i1 %19, label %20, label %.tail33.thread

20:                                               ; preds = %.tail33
  %21 = getelementptr inbounds nuw i8, ptr %0, i64 288
  %22 = load i64, ptr %21, align 8
  %23 = and i64 %22, -1148417904979476481
  %24 = or disjoint i64 %23, 49539595901075456
  br label %64

.tail33.thread:                                   ; preds = %sub_0, %sub_135, %sub_034, %.tail33
  %25 = tail call i32 @strcmp(ptr noundef nonnull dereferenceable(1) %4, ptr noundef nonnull dereferenceable(5) @.str.2) #11
  %.not27 = icmp eq i32 %25, 0
  br i1 %.not27, label %26, label %31

26:                                               ; preds = %.tail33.thread
  %27 = getelementptr inbounds nuw i8, ptr %0, i64 288
  %28 = load i64, ptr %27, align 8
  %29 = and i64 %28, -1148417904979476481
  %30 = or disjoint i64 %29, 193654783976931328
  br label %64

31:                                               ; preds = %.tail33.thread
  %32 = tail call i32 @strcmp(ptr noundef nonnull dereferenceable(1) %4, ptr noundef nonnull dereferenceable(5) @.str.3) #11
  %.not28 = icmp eq i32 %32, 0
  br i1 %.not28, label %33, label %38

33:                                               ; preds = %31
  %34 = getelementptr inbounds nuw i8, ptr %0, i64 288
  %35 = load i64, ptr %34, align 8
  %36 = and i64 %35, -1148417904979476609
  %37 = or disjoint i64 %36, 319755573543305216
  br label %64

38:                                               ; preds = %31
  %39 = tail call i32 @strcmp(ptr noundef nonnull dereferenceable(1) %4, ptr noundef nonnull dereferenceable(15) @.str.4) #11
  %.not29 = icmp eq i32 %39, 0
  br i1 %.not29, label %40, label %45

40:                                               ; preds = %38
  %41 = getelementptr inbounds nuw i8, ptr %0, i64 288
  %42 = load i64, ptr %41, align 8
  %43 = and i64 %42, -1148417904979476609
  %44 = or disjoint i64 %43, 589971551185534976
  br label %64

45:                                               ; preds = %38
  %46 = tail call i32 @strcmp(ptr noundef nonnull dereferenceable(1) %4, ptr noundef nonnull dereferenceable(17) @.str.5) #11
  %.not30 = icmp eq i32 %46, 0
  br i1 %.not30, label %47, label %51

47:                                               ; preds = %45
  %48 = getelementptr inbounds nuw i8, ptr %0, i64 288
  %49 = load i64, ptr %48, align 8
  %50 = and i64 %49, -1148417904979476481
  br label %64

51:                                               ; preds = %45
  %52 = tail call i32 @strcmp(ptr noundef nonnull dereferenceable(1) %4, ptr noundef nonnull dereferenceable(21) @.str.6) #11
  %.not31 = icmp eq i32 %52, 0
  br i1 %.not31, label %53, label %57

53:                                               ; preds = %51
  %54 = getelementptr inbounds nuw i8, ptr %0, i64 288
  %55 = load i64, ptr %54, align 8
  %56 = or i64 %55, 72057594037927936
  br label %64

57:                                               ; preds = %51
  %58 = call i32 @parse_long_opt(ptr noundef nonnull @.str.7, ptr noundef nonnull %1, ptr noundef nonnull %3) #12
  %.not32 = icmp eq i32 %58, 0
  br i1 %.not32, label %68, label %59

59:                                               ; preds = %57
  %60 = load ptr, ptr %3, align 8, !tbaa !8
  %61 = call fastcc ptr @func_by_opt(ptr noundef %60)
  %.not.i = icmp eq ptr %61, null
  br i1 %.not.i, label %62, label %set_diff_merges.exit

62:                                               ; preds = %59
  %63 = call fastcc ptr @_()
  call void (ptr, ...) @die(ptr noundef %63, ptr noundef nonnull @.str.23, ptr noundef %60) #13
  unreachable

set_diff_merges.exit:                             ; preds = %59
  call void %61(ptr noundef %0) #12
  %.phi.trans.insert = getelementptr inbounds nuw i8, ptr %0, i64 288
  %.pre42 = load i64, ptr %.phi.trans.insert, align 8
  br label %64

64:                                               ; preds = %20, %33, %47, %set_diff_merges.exit, %53, %40, %26, %10
  %65 = phi i64 [ %.pre42, %set_diff_merges.exit ], [ %56, %53 ], [ %50, %47 ], [ %44, %40 ], [ %37, %33 ], [ %30, %26 ], [ %24, %20 ], [ %14, %10 ]
  %.024 = phi i32 [ %58, %set_diff_merges.exit ], [ 1, %53 ], [ 1, %47 ], [ 1, %40 ], [ 1, %33 ], [ 1, %26 ], [ 1, %20 ], [ 1, %10 ]
  %66 = getelementptr inbounds nuw i8, ptr %0, i64 288
  %67 = or i64 %65, 2251799813685248
  store i64 %67, ptr %66, align 8
  br label %68

68:                                               ; preds = %57, %64
  %.0 = phi i32 [ %.024, %64 ], [ 0, %57 ]
  call void @llvm.lifetime.end.p0(i64 8, ptr nonnull %3) #12
  ret i32 %.0
}